target datalayout = "e-m:e-p270:32:32-p271:32:32-p272:64:64-i64:64-i128:128-f80:128-n8:16:32:64-S128"
target triple = "x86_64-pc-linux-gnu"

%struct.prte_process_info_t = type { %struct.pmix_proc, %struct.pmix_proc, ptr, %struct.pmix_proc, i32, i32, i32, ptr, ptr, i32, i8, ptr, i16, ptr, ptr, i8, ptr, i8 }
%struct.pmix_proc = type { [256 x i8], i32 }
%struct.prte_plm_globals_t = type { ptr, i32, %struct.timeval, %struct.pmix_data_buffer, i8, i64, %struct.pmix_list_t, i8, ptr }
%struct.timeval = type { i64, i64 }
%struct.pmix_data_buffer = type { ptr, ptr, ptr, i64, i64 }
%struct.pmix_list_t = type { %struct.pmix_object_t, %struct.pmix_list_item_t, i64 }
%struct.pmix_object_t = type { %union.pthread_mutex_t, ptr, i32, %struct.pmix_tma }
%union.pthread_mutex_t = type { %struct.__pthread_mutex_s }
%struct.__pthread_mutex_s = type { i32, i32, i32, i32, i32, i16, i16, %struct.__pthread_internal_list }
%struct.__pthread_internal_list = type { ptr, ptr }
%struct.pmix_tma = type { ptr, ptr, ptr, ptr, ptr, ptr, ptr, ptr }
%struct.pmix_list_item_t = type { %struct.pmix_object_t, ptr, ptr, i32 }

@.str = private unnamed_addr constant [19 x i8] c"PMIX_SERVER_NSPACE\00", align 1
@prte_process_info = external global %struct.prte_process_info_t, align 8
@prte_plm_globals = external global %struct.prte_plm_globals_t, align 8
@.str.1 = private unnamed_addr constant [17 x i8] c"PMIX_SERVER_RANK\00", align 1
@.str.2 = private unnamed_addr constant [9 x i8] c"%s-%s-%u\00", align 1
@prte_tool_basename = external global ptr, align 8
@.str.3 = private unnamed_addr constant [5 x i8] c"%s@0\00", align 1

; Function Attrs: nounwind uwtable
define i32 @prte_plm_base_set_hnp_name() #0 {
  %1 = alloca i32, align 4
  %2 = alloca ptr, align 8
  %3 = alloca i32, align 4
  call void @llvm.lifetime.start.p0(i64 8, ptr %2) #5
  %4 = call ptr @getenv(ptr noundef @.str) #5
  store ptr %4, ptr %2, align 8, !tbaa !3
  %5 = icmp ne ptr null, %4
  br i1 %5, label %6, label %17

6:                                                ; preds = %0
  %7 = load ptr, ptr %2, align 8, !tbaa !3
  call void @PMIx_Load_procid(ptr noundef @prte_process_info, ptr noundef %7, i32 noundef 0)
  %8 = load ptr, ptr %2, align 8, !tbaa !3
  %9 = call noalias ptr @strdup(ptr noundef %8) #5
  store ptr %9, ptr @prte_plm_globals, align 8, !tbaa !8
  %10 = call ptr @getenv(ptr noundef @.str.1) #5
  store ptr %10, ptr %2, align 8, !tbaa !3
  %11 = icmp ne ptr null, %10
  br i1 %11, label %12, label %16

12:                                               ; preds = %6
  %13 = load ptr, ptr %2, align 8, !tbaa !3
  %14 = call i64 @strtoul(ptr noundef %13, ptr noundef null, i32 noundef 10) #5
  %15 = trunc i64 %14 to i32
  store i32 %15, ptr getelementptr inbounds nuw (%struct.pmix_proc, ptr @prte_process_info, i32 0, i32 1), align 8, !tbaa !22
  br label %16

16:                                               ; preds = %12, %6
  call void @llvm.memcpy.p0.p0.i64(ptr align 4 getelementptr inbounds nuw (%struct.prte_process_info_t, ptr @prte_process_info, i32 0, i32 1), ptr align 8 @prte_process_info, i64 260, i1 false)
  store i32 0, ptr %1, align 4
  store i32 1, ptr %3, align 4
  br label %30

17:                                               ; preds = %0
  %18 = load ptr, ptr @prte_plm_globals, align 8, !tbaa !8
  %19 = icmp eq ptr null, %18
  br i1 %19, label %20, label %25

20:                                               ; preds = %17
  %21 = load ptr, ptr @prte_tool_basename, align 8, !tbaa !3
  %22 = load ptr, ptr getelementptr inbounds nuw (%struct.prte_process_info_t, ptr @prte_process_info, i32 0, i32 7), align 8, !tbaa !26
  %23 = load i32, ptr getelementptr inbounds nuw (%struct.prte_process_info_t, ptr @prte_process_info, i32 0, i32 9), align 8, !tbaa !27
  %24 = call i32 (ptr, ptr, ...) @pmix_asprintf(ptr noundef @prte_plm_globals, ptr noundef @.str.2, ptr noundef %21, ptr noundef %22, i32 noundef %23)
  br label %25

25:                                               ; preds = %20, %17
  %26 = load ptr, ptr @prte_plm_globals, align 8, !tbaa !8
  %27 = call i32 (ptr, ptr, ...) @pmix_asprintf(ptr noundef %2, ptr noundef @.str.3, ptr noundef %26)
  %28 = load ptr, ptr %2, align 8, !tbaa !3
  call void @PMIx_Load_procid(ptr noundef @prte_process_info, ptr noundef %28, i32 noundef 0)
  call void @llvm.memcpy.p0.p0.i64(ptr align 4 getelementptr inbounds nuw (%struct.prte_process_info_t, ptr @prte_process_info, i32 0, i32 1), ptr align 8 @prte_process_info, i64 260, i1 false)
  %29 = load ptr, ptr %2, align 8, !tbaa !3
  call void @free(ptr noundef %29) #5
  store i32 0, ptr %1, align 4
  store i32 1, ptr %3, align 4
  br label %30

30:                                               ; preds = %25, %16
  call void @llvm.lifetime.end.p0(i64 8, ptr %2) #5
  %31 = load i32, ptr %1, align 4
  ret i32 %31
}