; Function Attrs: nounwind uwtable
define noundef i32 @prte_plm_base_set_hnp_name() local_unnamed_addr #0 {
  %1 = alloca ptr, align 8
  call void @llvm.lifetime.start.p0(i64 8, ptr nonnull %1) #9
  %2 = tail call ptr @getenv(ptr noundef nonnull @.str) #9
  store ptr %2, ptr %1, align 8, !tbaa !3
  %.not = icmp eq ptr %2, null
  br i1 %.not, label %10, label %3

3:                                                ; preds = %0
  tail call void @PMIx_Load_procid(ptr noundef nonnull @prte_process_info, ptr noundef nonnull %2, i32 noundef 0) #9
  %4 = tail call noalias ptr @strdup(ptr noundef nonnull %2) #9
  store ptr %4, ptr @prte_plm_globals, align 8, !tbaa !8
  %5 = tail call ptr @getenv(ptr noundef nonnull @.str.1) #9
  %.not2 = icmp eq ptr %5, null
  br i1 %.not2, label %9, label %6

6:                                                ; preds = %3
  %7 = tail call i64 @strtoul(ptr noundef nonnull captures(none) %5, ptr noundef null, i32 noundef 10) #9
  %8 = trunc i64 %7 to i32
  store i32 %8, ptr getelementptr inbounds nuw (i8, ptr @prte_process_info, i64 256), align 8, !tbaa !22
  br label %9

9:                                                ; preds = %6, %3
  tail call void @llvm.memcpy.p0.p0.i64(ptr noundef nonnull align 4 dereferenceable(260) getelementptr inbounds nuw (i8, ptr @prte_process_info, i64 260), ptr noundef nonnull align 8 dereferenceable(260) @prte_process_info, i64 260, i1 false)
  br label %23

10:                                               ; preds = %0
  %11 = load ptr, ptr @prte_plm_globals, align 8, !tbaa !8
  %12 = icmp eq ptr %11, null
  br i1 %12, label %13, label %18

13:                                               ; preds = %10
  %14 = load ptr, ptr @prte_tool_basename, align 8, !tbaa !3
  %15 = load ptr, ptr getelementptr inbounds nuw (i8, ptr @prte_process_info, i64 800), align 8, !tbaa !26
  %16 = load i32, ptr getelementptr inbounds nuw (i8, ptr @prte_process_info, i64 816), align 8, !tbaa !27
  %17 = tail call i32 (ptr, ptr, ...) @pmix_asprintf(ptr noundef nonnull @prte_plm_globals, ptr noundef nonnull @.str.2, ptr noundef %14, ptr noundef %15, i32 noundef %16) #9
  %.pre = load ptr, ptr @prte_plm_globals, align 8, !tbaa !8
  br label %18

18:                                               ; preds = %13, %10
  %19 = phi ptr [ %.pre, %13 ], [ %11, %10 ]
  %20 = call i32 (ptr, ptr, ...) @pmix_asprintf(ptr noundef nonnull %1, ptr noundef nonnull @.str.3, ptr noundef %19) #9
  %21 = load ptr, ptr %1, align 8, !tbaa !3
  call void @PMIx_Load_procid(ptr noundef nonnull @prte_process_info, ptr noundef %21, i32 noundef 0) #9
  call void @llvm.memcpy.p0.p0.i64(ptr noundef nonnull align 4 dereferenceable(260) getelementptr inbounds nuw (i8, ptr @prte_process_info, i64 260), ptr noundef nonnull align 8 dereferenceable(260) @prte_process_info, i64 260, i1 false)
  %22 = load ptr, ptr %1, align 8, !tbaa !3
  call void @free(ptr noundef %22) #9
  br label %23

23:                                               ; preds = %18, %9
  call void @llvm.lifetime.end.p0(i64 8, ptr nonnull %1) #9
  ret i32 0
}